target datalayout = "e-m:e-p270:32:32-p271:32:32-p272:64:64-i64:64-i128:128-f80:128-n8:16:32:64-S128"
target triple = "x86_64-pc-linux-gnu"

%struct.UDataInfo = type { i16, i16, i8, i8, i8, i8, [4 x i8], [4 x i8], [4 x i8] }
%struct.DataHeader = type { %struct.MappedData, %struct.UDataInfo }
%struct.MappedData = type { i16, i8, i8 }

; Function Attrs: mustprogress nounwind uwtable
define internal noundef zeroext i16 @_ZL14readSwapUInt16t(i16 noundef zeroext %0) #3 {
  %2 = alloca i16, align 2
  store i16 %0, ptr %2, align 2, !tbaa !25
  %3 = load i16, ptr %2, align 2, !tbaa !25
  %4 = zext i16 %3 to i32
  %5 = shl i32 %4, 8
  %6 = load i16, ptr %2, align 2, !tbaa !25
  %7 = zext i16 %6 to i32
  %8 = ashr i32 %7, 8
  %9 = or i32 %5, %8
  %10 = trunc i32 %9 to i16
  ret i16 %10
}

; Function Attrs: inlinehint mustprogress nounwind uwtable
define internal noundef signext i8 @_ZL9U_FAILURE10UErrorCode(i32 noundef %0) #2 {
  %2 = alloca i32, align 4
  store i32 %0, ptr %2, align 4, !tbaa !13
  %3 = load i32, ptr %2, align 4, !tbaa !13
  %4 = icmp sgt i32 %3, 0
  %5 = zext i1 %4 to i8
  ret i8 %5
}

; Function Attrs: mustprogress uwtable
define ptr @getDataInfo(ptr noundef %0, i32 noundef %1, ptr noundef nonnull align 4 dereferenceable(4) %2, ptr noundef nonnull align 4 dereferenceable(4) %3, ptr noundef %4) #0 {
  %6 = alloca ptr, align 8
  %7 = alloca ptr, align 8
  %8 = alloca i32, align 4
  %9 = alloca ptr, align 8
  %10 = alloca ptr, align 8
  %11 = alloca ptr, align 8
  %12 = alloca ptr, align 8
  %13 = alloca ptr, align 8
  %14 = alloca i32, align 4
  store ptr %0, ptr %7, align 8, !tbaa !3
  store i32 %1, ptr %8, align 4, !tbaa !8
  store ptr %2, ptr %9, align 8, !tbaa !10
  store ptr %3, ptr %10, align 8, !tbaa !10
  store ptr %4, ptr %11, align 8, !tbaa !12
  call void @llvm.lifetime.start.p0(i64 8, ptr %12) #13
  call void @llvm.lifetime.start.p0(i64 8, ptr %13) #13
  %15 = load ptr, ptr %11, align 8, !tbaa !12
  %16 = icmp eq ptr %15, null
  br i1 %16, label %22, label %17

17:                                               ; preds = %5
  %18 = load ptr, ptr %11, align 8, !tbaa !12
  %19 = load i32, ptr %18, align 4, !tbaa !13
  %20 = call noundef signext i8 @_ZL9U_FAILURE10UErrorCode(i32 noundef %19)
  %21 = icmp ne i8 %20, 0
  br i1 %21, label %22, label %23

22:                                               ; preds = %17, %5
  store ptr null, ptr %6, align 8
  store i32 1, ptr %14, align 4
  br label %126

23:                                               ; preds = %17
  %24 = load ptr, ptr %7, align 8, !tbaa !3
  %25 = icmp eq ptr %24, null
  br i1 %25, label %32, label %26

26:                                               ; preds = %23
  %27 = load i32, ptr %8, align 4, !tbaa !8
  %28 = icmp sge i32 %27, 0
  br i1 %28, label %29, label %34

29:                                               ; preds = %26
  %30 = load i32, ptr %8, align 4, !tbaa !8
  %31 = icmp slt i32 %30, 24
  br i1 %31, label %32, label %34

32:                                               ; preds = %29, %23
  %33 = load ptr, ptr %11, align 8, !tbaa !12
  store i32 1, ptr %33, align 4, !tbaa !13
  store ptr null, ptr %6, align 8
  store i32 1, ptr %14, align 4
  br label %126

34:                                               ; preds = %29, %26
  %35 = load ptr, ptr %7, align 8, !tbaa !3
  store ptr %35, ptr %12, align 8, !tbaa !12
  %36 = load ptr, ptr %12, align 8, !tbaa !12
  %37 = getelementptr inbounds nuw %struct.DataHeader, ptr %36, i32 0, i32 1
  store ptr %37, ptr %13, align 8, !tbaa !12
  %38 = load i32, ptr %8, align 4, !tbaa !8
  %39 = icmp sge i32 %38, 0
  br i1 %39, label %40, label %43

40:                                               ; preds = %34
  %41 = load i32, ptr %8, align 4, !tbaa !8
  %42 = icmp slt i32 %41, 24
  br i1 %42, label %63, label %43

43:                                               ; preds = %40, %34
  %44 = load ptr, ptr %12, align 8, !tbaa !12
  %45 = getelementptr inbounds nuw %struct.DataHeader, ptr %44, i32 0, i32 0
  %46 = getelementptr inbounds nuw %struct.MappedData, ptr %45, i32 0, i32 1
  %47 = load i8, ptr %46, align 2, !tbaa !15
  %48 = zext i8 %47 to i32
  %49 = icmp ne i32 %48, 218
  br i1 %49, label %63, label %50

50:                                               ; preds = %43
  %51 = load ptr, ptr %12, align 8, !tbaa !12
  %52 = getelementptr inbounds nuw %struct.DataHeader, ptr %51, i32 0, i32 0
  %53 = getelementptr inbounds nuw %struct.MappedData, ptr %52, i32 0, i32 2
  %54 = load i8, ptr %53, align 1, !tbaa !20
  %55 = zext i8 %54 to i32
  %56 = icmp ne i32 %55, 39
  br i1 %56, label %63, label %57

57:                                               ; preds = %50
  %58 = load ptr, ptr %13, align 8, !tbaa !12
  %59 = getelementptr inbounds nuw %struct.UDataInfo, ptr %58, i32 0, i32 4
  %60 = load i8, ptr %59, align 2, !tbaa !21
  %61 = zext i8 %60 to i32
  %62 = icmp ne i32 %61, 2
  br i1 %62, label %63, label %65

63:                                               ; preds = %57, %50, %43, %40
  %64 = load ptr, ptr %11, align 8, !tbaa !12
  store i32 16, ptr %64, align 4, !tbaa !13
  store ptr null, ptr %6, align 8
  store i32 1, ptr %14, align 4
  br label %126

65:                                               ; preds = %57
  %66 = load ptr, ptr %13, align 8, !tbaa !12
  %67 = getelementptr inbounds nuw %struct.UDataInfo, ptr %66, i32 0, i32 2
  %68 = load i8, ptr %67, align 2, !tbaa !22
  %69 = zext i8 %68 to i32
  %70 = icmp eq i32 %69, 0
  br i1 %70, label %71, label %83

71:                                               ; preds = %65
  %72 = load ptr, ptr %12, align 8, !tbaa !12
  %73 = getelementptr inbounds nuw %struct.DataHeader, ptr %72, i32 0, i32 0
  %74 = getelementptr inbounds nuw %struct.MappedData, ptr %73, i32 0, i32 0
  %75 = load i16, ptr %74, align 2, !tbaa !23
  %76 = zext i16 %75 to i32
  %77 = load ptr, ptr %10, align 8, !tbaa !10
  store i32 %76, ptr %77, align 4, !tbaa !8
  %78 = load ptr, ptr %13, align 8, !tbaa !12
  %79 = getelementptr inbounds nuw %struct.UDataInfo, ptr %78, i32 0, i32 0
  %80 = load i16, ptr %79, align 2, !tbaa !24
  %81 = zext i16 %80 to i32
  %82 = load ptr, ptr %9, align 8, !tbaa !10
  store i32 %81, ptr %82, align 4, !tbaa !8
  br label %97

83:                                               ; preds = %65
  %84 = load ptr, ptr %12, align 8, !tbaa !12
  %85 = getelementptr inbounds nuw %struct.DataHeader, ptr %84, i32 0, i32 0
  %86 = getelementptr inbounds nuw %struct.MappedData, ptr %85, i32 0, i32 0
  %87 = load i16, ptr %86, align 2, !tbaa !23
  %88 = call noundef zeroext i16 @_ZL14readSwapUInt16t(i16 noundef zeroext %87)
  %89 = zext i16 %88 to i32
  %90 = load ptr, ptr %10, align 8, !tbaa !10
  store i32 %89, ptr %90, align 4, !tbaa !8
  %91 = load ptr, ptr %13, align 8, !tbaa !12
  %92 = getelementptr inbounds nuw %struct.UDataInfo, ptr %91, i32 0, i32 0
  %93 = load i16, ptr %92, align 2, !tbaa !24
  %94 = call noundef zeroext i16 @_ZL14readSwapUInt16t(i16 noundef zeroext %93)
  %95 = zext i16 %94 to i32
  %96 = load ptr, ptr %9, align 8, !tbaa !10
  store i32 %95, ptr %96, align 4, !tbaa !8
  br label %97

97:                                               ; preds = %83, %71
  %98 = load ptr, ptr %10, align 8, !tbaa !10
  %99 = load i32, ptr %98, align 4, !tbaa !8
  %100 = icmp slt i32 %99, 24
  br i1 %100, label %122, label %101

101:                                              ; preds = %97
  %102 = load ptr, ptr %9, align 8, !tbaa !10
  %103 = load i32, ptr %102, align 4, !tbaa !8
  %104 = icmp slt i32 %103, 20
  br i1 %104, label %122, label %105

105:                                              ; preds = %101
  %106 = load ptr, ptr %10, align 8, !tbaa !10
  %107 = load i32, ptr %106, align 4, !tbaa !8
  %108 = load ptr, ptr %9, align 8, !tbaa !10
  %109 = load i32, ptr %108, align 4, !tbaa !8
  %110 = sext i32 %109 to i64
  %111 = add i64 4, %110
  %112 = trunc i64 %111 to i32
  %113 = icmp slt i32 %107, %112
  br i1 %113, label %122, label %114

114:                                              ; preds = %105
  %115 = load i32, ptr %8, align 4, !tbaa !8
  %116 = icmp sge i32 %115, 0
  br i1 %116, label %117, label %124

117:                                              ; preds = %114
  %118 = load i32, ptr %8, align 4, !tbaa !8
  %119 = load ptr, ptr %10, align 8, !tbaa !10
  %120 = load i32, ptr %119, align 4, !tbaa !8
  %121 = icmp slt i32 %118, %120
  br i1 %121, label %122, label %124

122:                                              ; preds = %117, %105, %101, %97
  %123 = load ptr, ptr %11, align 8, !tbaa !12
  store i32 16, ptr %123, align 4, !tbaa !13
  store ptr null, ptr %6, align 8
  store i32 1, ptr %14, align 4
  br label %126

124:                                              ; preds = %117, %114
  %125 = load ptr, ptr %13, align 8, !tbaa !12
  store ptr %125, ptr %6, align 8
  store i32 1, ptr %14, align 4
  br label %126

126:                                              ; preds = %124, %122, %63, %32, %22
  call void @llvm.lifetime.end.p0(i64 8, ptr %13) #13
  call void @llvm.lifetime.end.p0(i64 8, ptr %12) #13
  %127 = load ptr, ptr %6, align 8
  ret ptr %127
}