; Function Attrs: mustprogress nofree norecurse nosync nounwind willreturn memory(argmem: readwrite) uwtable
define ptr @getDataInfo(ptr noundef readonly %0, i32 noundef %1, ptr noundef nonnull writeonly align 4 captures(none) dereferenceable(4) %2, ptr noundef nonnull align 4 captures(none) dereferenceable(4) %3, ptr noundef %4) local_unnamed_addr #0 {
  %6 = icmp eq ptr %4, null
  br i1 %6, label %39, label %7

7:                                                ; preds = %5
  %8 = load i32, ptr %4, align 4, !tbaa !3
  %9 = icmp slt i32 %8, 1
  br i1 %9, label %10, label %39

10:                                               ; preds = %7
  %11 = icmp eq ptr %0, null
  %or.cond = icmp ult i32 %1, 24
  %or.cond46 = or i1 %11, %or.cond
  br i1 %or.cond46, label %.sink.split, label %12

12:                                               ; preds = %10
  %13 = getelementptr inbounds nuw i8, ptr %0, i64 4
  %14 = getelementptr inbounds nuw i8, ptr %0, i64 2
  %15 = load i8, ptr %14, align 2, !tbaa !7
  %.not40 = icmp eq i8 %15, -38
  br i1 %.not40, label %16, label %.sink.split

16:                                               ; preds = %12
  %17 = getelementptr inbounds nuw i8, ptr %0, i64 3
  %18 = load i8, ptr %17, align 1, !tbaa !12
  %.not41 = icmp eq i8 %18, 39
  br i1 %.not41, label %19, label %.sink.split

19:                                               ; preds = %16
  %20 = getelementptr inbounds nuw i8, ptr %0, i64 10
  %21 = load i8, ptr %20, align 2, !tbaa !13
  %.not42 = icmp eq i8 %21, 2
  br i1 %.not42, label %22, label %.sink.split

22:                                               ; preds = %19
  %23 = getelementptr inbounds nuw i8, ptr %0, i64 8
  %24 = load i8, ptr %23, align 2, !tbaa !14
  %25 = icmp eq i8 %24, 0
  %26 = load i16, ptr %0, align 2, !tbaa !15
  br i1 %25, label %27, label %29

27:                                               ; preds = %22
  %28 = load i16, ptr %13, align 2, !tbaa !16
  br label %33

29:                                               ; preds = %22
  %30 = tail call noundef i16 @llvm.bswap.i16(i16 %26)
  %31 = load i16, ptr %13, align 2, !tbaa !16
  %32 = tail call noundef i16 @llvm.bswap.i16(i16 %31)
  br label %33

33:                                               ; preds = %29, %27
  %.sink.in = phi i16 [ %26, %27 ], [ %30, %29 ]
  %storemerge.in = phi i16 [ %28, %27 ], [ %32, %29 ]
  %.sink = zext i16 %.sink.in to i32
  store i32 %.sink, ptr %3, align 4, !tbaa !17
  %storemerge = zext i16 %storemerge.in to i32
  store i32 %storemerge, ptr %2, align 4, !tbaa !17
  %34 = load i32, ptr %3, align 4, !tbaa !17
  %35 = icmp slt i32 %34, 24
  br i1 %35, label %.sink.split, label %36

36:                                               ; preds = %33
  %37 = icmp ult i16 %storemerge.in, 20
  %narrow = add nuw nsw i32 %storemerge, 4
  %38 = icmp samesign ult i32 %34, %narrow
  %or.cond43 = select i1 %37, i1 true, i1 %38
  %or.cond44 = icmp ult i32 %1, %34
  %or.cond45 = or i1 %or.cond44, %or.cond43
  br i1 %or.cond45, label %.sink.split, label %39

.sink.split:                                      ; preds = %33, %36, %12, %16, %19, %10
  %.sink47 = phi i32 [ 1, %10 ], [ 16, %19 ], [ 16, %16 ], [ 16, %12 ], [ 16, %36 ], [ 16, %33 ]
  store i32 %.sink47, ptr %4, align 4, !tbaa !3
  br label %39

39:                                               ; preds = %.sink.split, %36, %5, %7
  %.0 = phi ptr [ null, %7 ], [ null, %5 ], [ %13, %36 ], [ null, %.sink.split ]
  ret ptr %.0
}